; Function Attrs: mustprogress nofree norecurse nosync nounwind willreturn memory(argmem: readwrite) uwtable
define dso_local void @bit_copybits(ptr noundef writeonly captures(none) %0, ptr noundef readonly captures(none) %1) #1 {
  %3 = getelementptr inbounds nuw i8, ptr %1, i64 8
  %4 = load i64, ptr %3, align 8
  %5 = getelementptr inbounds nuw i8, ptr %0, i64 16
  %6 = getelementptr inbounds nuw i8, ptr %1, i64 16
  %7 = shl i64 %4, 29
  %8 = add i64 %7, 33822867456
  %sext = ashr i64 %8, 32
  %9 = and i64 %sext, -8
  tail call void @llvm.memcpy.p0.p0.i64(ptr nonnull align 8 %5, ptr nonnull align 8 %6, i64 %9, i1 false)
  ret void
}